target datalayout = "e-m:e-p270:32:32-p271:32:32-p272:64:64-i64:64-i128:128-f80:128-n8:16:32:64-S128"
target triple = "x86_64-unknown-linux-gnu"

; Function Attrs: mustprogress nounwind uwtable
define linkonce_odr hidden noundef i32 @_ZN6cineon9SwapBytesIjEET_RS1_(ptr noundef nonnull align 4 dereferenceable(4) %value) #1 comdat {
entry:
  %value.addr = alloca ptr, align 8
  %pe = alloca ptr, align 8
  %ps = alloca ptr, align 8
  %c = alloca i8, align 1
  %s = alloca i64, align 8
  %i = alloca i64, align 8
  store ptr %value, ptr %value.addr, align 8
  %0 = load ptr, ptr %value.addr, align 8
  store ptr %0, ptr %ps, align 8
  store i64 4, ptr %s, align 8
  %1 = load ptr, ptr %ps, align 8
  %2 = load i64, ptr %s, align 8
  %add.ptr = getelementptr inbounds i8, ptr %1, i64 %2
  %add.ptr1 = getelementptr inbounds i8, ptr %add.ptr, i64 -1
  store ptr %add.ptr1, ptr %pe, align 8
  %3 = load i64, ptr %s, align 8
  %div = udiv i64 %3, 2
  store i64 %div, ptr %i, align 8
  br label %for.cond

for.cond:                                         ; preds = %for.inc, %entry
  %4 = load i64, ptr %i, align 8
  %cmp = icmp ugt i64 %4, 0
  br i1 %cmp, label %for.body, label %for.end

for.body:                                         ; preds = %for.cond
  %5 = load ptr, ptr %ps, align 8
  %6 = load i8, ptr %5, align 1
  store i8 %6, ptr %c, align 1
  %7 = load ptr, ptr %pe, align 8
  %8 = load i8, ptr %7, align 1
  %9 = load ptr, ptr %ps, align 8
  store i8 %8, ptr %9, align 1
  %10 = load i8, ptr %c, align 1
  %11 = load ptr, ptr %pe, align 8
  store i8 %10, ptr %11, align 1
  %12 = load ptr, ptr %ps, align 8
  %incdec.ptr = getelementptr inbounds i8, ptr %12, i32 1
  store ptr %incdec.ptr, ptr %ps, align 8
  %13 = load ptr, ptr %pe, align 8
  %incdec.ptr2 = getelementptr inbounds i8, ptr %13, i32 -1
  store ptr %incdec.ptr2, ptr %pe, align 8
  br label %for.inc

for.inc:                                          ; preds = %for.body
  %14 = load i64, ptr %i, align 8
  %dec = add i64 %14, -1
  store i64 %dec, ptr %i, align 8
  br label %for.cond, !llvm.loop !6

for.end:                                          ; preds = %for.cond
  %15 = load ptr, ptr %value.addr, align 8
  %16 = load i32, ptr %15, align 4
  ret i32 %16
}

; Function Attrs: mustprogress uwtable
define hidden noundef zeroext i1 @_ZN6cineon6Header16ValidMagicCookieEj(i32 noundef %magic) #6 align 2 {
entry:
  %retval = alloca i1, align 1
  %magic.addr = alloca i32, align 4
  %mc = alloca i32, align 4
  store i32 %magic, ptr %magic.addr, align 4
  store i32 -2144706601, ptr %mc, align 4
  %0 = load i32, ptr %magic.addr, align 4
  %1 = load i32, ptr %mc, align 4
  %cmp = icmp eq i32 %0, %1
  br i1 %cmp, label %if.then, label %if.else

if.then:                                          ; preds = %entry
  store i1 true, ptr %retval, align 1
  br label %return

if.else:                                          ; preds = %entry
  %2 = load i32, ptr %magic.addr, align 4
  %call = call noundef i32 @_ZN6cineon9SwapBytesIjEET_RS1_(ptr noundef nonnull align 4 dereferenceable(4) %mc)
  %cmp1 = icmp eq i32 %2, %call
  br i1 %cmp1, label %if.then2, label %if.else3

if.then2:                                         ; preds = %if.else
  store i1 true, ptr %retval, align 1
  br label %return

if.else3:                                         ; preds = %if.else
  store i1 false, ptr %retval, align 1
  br label %return

return:                                           ; preds = %if.else3, %if.then2, %if.then
  %3 = load i1, ptr %retval, align 1
  ret i1 %3
}