; Function Attrs: mustprogress nofree norecurse nosync nounwind willreturn memory(none) uwtable
define hidden noundef zeroext i1 @_ZN6cineon6Header16ValidMagicCookieEj(i32 noundef %magic) local_unnamed_addr #5 align 2 {
entry:
  %mc = alloca i32, align 4
  store i32 -2144706601, ptr %mc, align 4
  %cmp = icmp eq i32 %magic, -2144706601
  br i1 %cmp, label %return, label %if.else

if.else:                                          ; preds = %entry
  %add.ptr1.i = getelementptr inbounds i8, ptr %mc, i64 3
  br label %for.body.i

for.body.i:                                       ; preds = %for.body.i, %if.else
  %i.011.i = phi i64 [ 2, %if.else ], [ %dec.i, %for.body.i ]
  %pe.010.i = phi ptr [ %add.ptr1.i, %if.else ], [ %incdec.ptr2.i, %for.body.i ]
  %ps.09.i = phi ptr [ %mc, %if.else ], [ %incdec.ptr.i, %for.body.i ]
  %0 = load i8, ptr %ps.09.i, align 1
  %1 = load i8, ptr %pe.010.i, align 1
  store i8 %1, ptr %ps.09.i, align 1
  store i8 %0, ptr %pe.010.i, align 1
  %incdec.ptr.i = getelementptr inbounds i8, ptr %ps.09.i, i64 1
  %incdec.ptr2.i = getelementptr inbounds i8, ptr %pe.010.i, i64 -1
  %dec.i = add nsw i64 %i.011.i, -1
  %cmp.not.i = icmp eq i64 %dec.i, 0
  br i1 %cmp.not.i, label %_ZN6cineon9SwapBytesIjEET_RS1_.exit, label %for.body.i, !llvm.loop !4

_ZN6cineon9SwapBytesIjEET_RS1_.exit:              ; preds = %for.body.i
  %2 = load i32, ptr %mc, align 4
  %cmp1 = icmp eq i32 %2, %magic
  br label %return

return:                                           ; preds = %_ZN6cineon9SwapBytesIjEET_RS1_.exit, %entry
  %retval.0 = phi i1 [ true, %entry ], [ %cmp1, %_ZN6cineon9SwapBytesIjEET_RS1_.exit ]
  ret i1 %retval.0
}